target datalayout = "e-m:e-p270:32:32-p271:32:32-p272:64:64-i64:64-i128:128-f80:128-n8:16:32:64-S128"
target triple = "x86_64-pc-linux-gnu"

@.str.10 = private unnamed_addr constant [3 x i8] c"-1\00", align 1
@.str.11 = private unnamed_addr constant [9 x i8] c"INFINITE\00", align 1
@.str.12 = private unnamed_addr constant [10 x i8] c"UNLIMITED\00", align 1
@.str.13 = private unnamed_addr constant [12 x i8] c"%d-%d:%d:%d\00", align 1
@.str.14 = private unnamed_addr constant [9 x i8] c"%d:%d:%d\00", align 1

; Function Attrs: nounwind uwtable
define internal zeroext i1 @_is_valid_timespec(ptr noundef %0) #0 {
  %2 = alloca i1, align 1
  %3 = alloca ptr, align 8
  %4 = alloca i32, align 4
  %5 = alloca i32, align 4
  %6 = alloca i32, align 4
  %7 = alloca i8, align 1
  %8 = alloca i32, align 4
  store ptr %0, ptr %3, align 8
  call void @llvm.lifetime.start.p0(i64 4, ptr %4) #7
  call void @llvm.lifetime.start.p0(i64 4, ptr %5) #7
  call void @llvm.lifetime.start.p0(i64 4, ptr %6) #7
  call void @llvm.lifetime.start.p0(i64 1, ptr %7) #7
  store i8 0, ptr %7, align 1
  store i32 0, ptr %6, align 4
  store i32 0, ptr %5, align 4
  store i32 0, ptr %4, align 4
  br label %9

9:                                                ; preds = %53, %1
  %10 = load ptr, ptr %3, align 8
  %11 = load i8, ptr %10, align 1
  %12 = icmp ne i8 %11, 0
  br i1 %12, label %13, label %56

13:                                               ; preds = %9
  %14 = load ptr, ptr %3, align 8
  %15 = load i8, ptr %14, align 1
  %16 = sext i8 %15 to i32
  %17 = icmp sge i32 %16, 48
  br i1 %17, label %18, label %30

18:                                               ; preds = %13
  %19 = load ptr, ptr %3, align 8
  %20 = load i8, ptr %19, align 1
  %21 = sext i8 %20 to i32
  %22 = icmp sle i32 %21, 57
  br i1 %22, label %23, label %30

23:                                               ; preds = %18
  %24 = load i8, ptr %7, align 1, !range !15, !noundef !16
  %25 = trunc i8 %24 to i1
  br i1 %25, label %29, label %26

26:                                               ; preds = %23
  %27 = load i32, ptr %4, align 4
  %28 = add nsw i32 %27, 1
  store i32 %28, ptr %4, align 4
  store i8 1, ptr %7, align 1
  br label %29

29:                                               ; preds = %26, %23
  br label %53

30:                                               ; preds = %18, %13
  %31 = load ptr, ptr %3, align 8
  %32 = load i8, ptr %31, align 1
  %33 = sext i8 %32 to i32
  %34 = icmp eq i32 %33, 45
  br i1 %34, label %35, label %42

35:                                               ; preds = %30
  store i8 0, ptr %7, align 1
  %36 = load i32, ptr %5, align 4
  %37 = add nsw i32 %36, 1
  store i32 %37, ptr %5, align 4
  %38 = load i32, ptr %6, align 4
  %39 = icmp ne i32 %38, 0
  br i1 %39, label %40, label %41

40:                                               ; preds = %35
  store i1 false, ptr %2, align 1
  store i32 1, ptr %8, align 4
  br label %101

41:                                               ; preds = %35
  br label %52

42:                                               ; preds = %30
  %43 = load ptr, ptr %3, align 8
  %44 = load i8, ptr %43, align 1
  %45 = sext i8 %44 to i32
  %46 = icmp eq i32 %45, 58
  br i1 %46, label %47, label %50

47:                                               ; preds = %42
  store i8 0, ptr %7, align 1
  %48 = load i32, ptr %6, align 4
  %49 = add nsw i32 %48, 1
  store i32 %49, ptr %6, align 4
  br label %51

50:                                               ; preds = %42
  store i1 false, ptr %2, align 1
  store i32 1, ptr %8, align 4
  br label %101

51:                                               ; preds = %47
  br label %52

52:                                               ; preds = %51, %41
  br label %53

53:                                               ; preds = %52, %29
  %54 = load ptr, ptr %3, align 8
  %55 = getelementptr inbounds nuw i8, ptr %54, i32 1
  store ptr %55, ptr %3, align 8
  br label %9, !llvm.loop !17

56:                                               ; preds = %9
  %57 = load i32, ptr %4, align 4
  %58 = icmp ne i32 %57, 0
  br i1 %58, label %60, label %59

59:                                               ; preds = %56
  store i1 false, ptr %2, align 1
  store i32 1, ptr %8, align 4
  br label %101

60:                                               ; preds = %56
  %61 = load i32, ptr %5, align 4
  %62 = icmp sgt i32 %61, 1
  br i1 %62, label %66, label %63

63:                                               ; preds = %60
  %64 = load i32, ptr %6, align 4
  %65 = icmp sgt i32 %64, 2
  br i1 %65, label %66, label %67

66:                                               ; preds = %63, %60
  store i1 false, ptr %2, align 1
  store i32 1, ptr %8, align 4
  br label %101

67:                                               ; preds = %63
  %68 = load i32, ptr %5, align 4
  %69 = icmp ne i32 %68, 0
  br i1 %69, label %70, label %85

70:                                               ; preds = %67
  %71 = load i32, ptr %6, align 4
  %72 = icmp eq i32 %71, 1
  br i1 %72, label %73, label %77

73:                                               ; preds = %70
  %74 = load i32, ptr %4, align 4
  %75 = icmp slt i32 %74, 3
  br i1 %75, label %76, label %77

76:                                               ; preds = %73
  store i1 false, ptr %2, align 1
  store i32 1, ptr %8, align 4
  br label %101

77:                                               ; preds = %73, %70
  %78 = load i32, ptr %6, align 4
  %79 = icmp eq i32 %78, 2
  br i1 %79, label %80, label %84

80:                                               ; preds = %77
  %81 = load i32, ptr %4, align 4
  %82 = icmp slt i32 %81, 4
  br i1 %82, label %83, label %84

83:                                               ; preds = %80
  store i1 false, ptr %2, align 1
  store i32 1, ptr %8, align 4
  br label %101

84:                                               ; preds = %80, %77
  br label %100

85:                                               ; preds = %67
  %86 = load i32, ptr %6, align 4
  %87 = icmp eq i32 %86, 1
  br i1 %87, label %88, label %92

88:                                               ; preds = %85
  %89 = load i32, ptr %4, align 4
  %90 = icmp slt i32 %89, 2
  br i1 %90, label %91, label %92

91:                                               ; preds = %88
  store i1 false, ptr %2, align 1
  store i32 1, ptr %8, align 4
  br label %101

92:                                               ; preds = %88, %85
  %93 = load i32, ptr %6, align 4
  %94 = icmp eq i32 %93, 2
  br i1 %94, label %95, label %99

95:                                               ; preds = %92
  %96 = load i32, ptr %4, align 4
  %97 = icmp slt i32 %96, 3
  br i1 %97, label %98, label %99

98:                                               ; preds = %95
  store i1 false, ptr %2, align 1
  store i32 1, ptr %8, align 4
  br label %101

99:                                               ; preds = %95, %92
  br label %100

100:                                              ; preds = %99, %84
  store i1 true, ptr %2, align 1
  store i32 1, ptr %8, align 4
  br label %101

101:                                              ; preds = %100, %98, %91, %83, %76, %66, %59, %50, %40
  call void @llvm.lifetime.end.p0(i64 1, ptr %7) #7
  call void @llvm.lifetime.end.p0(i64 4, ptr %6) #7
  call void @llvm.lifetime.end.p0(i64 4, ptr %5) #7
  call void @llvm.lifetime.end.p0(i64 4, ptr %4) #7
  %102 = load i1, ptr %2, align 1
  ret i1 %102
}

; Function Attrs: nounwind uwtable
define dso_local i32 @time_str2secs(ptr noundef %0) #0 {
  %2 = alloca i32, align 4
  %3 = alloca ptr, align 8
  %4 = alloca i32, align 4
  %5 = alloca i32, align 4
  %6 = alloca i32, align 4
  %7 = alloca i32, align 4
  %8 = alloca i32, align 4
  store ptr %0, ptr %3, align 8
  call void @llvm.lifetime.start.p0(i64 4, ptr %4) #7
  store i32 0, ptr %4, align 4
  call void @llvm.lifetime.start.p0(i64 4, ptr %5) #7
  store i32 0, ptr %5, align 4
  call void @llvm.lifetime.start.p0(i64 4, ptr %6) #7
  store i32 0, ptr %6, align 4
  call void @llvm.lifetime.start.p0(i64 4, ptr %7) #7
  store i32 0, ptr %7, align 4
  %9 = load ptr, ptr %3, align 8
  %10 = icmp eq ptr %9, null
  br i1 %10, label %17, label %11

11:                                               ; preds = %1
  %12 = load ptr, ptr %3, align 8
  %13 = getelementptr inbounds i8, ptr %12, i64 0
  %14 = load i8, ptr %13, align 1
  %15 = sext i8 %14 to i32
  %16 = icmp eq i32 %15, 0
  br i1 %16, label %17, label %18

17:                                               ; preds = %11, %1
  store i32 -2, ptr %2, align 4
  store i32 1, ptr %8, align 4
  br label %70

18:                                               ; preds = %11
  %19 = load ptr, ptr %3, align 8
  %20 = call i32 @xstrcasecmp(ptr noundef %19, ptr noundef @.str.10)
  %21 = icmp ne i32 %20, 0
  br i1 %21, label %22, label %30

22:                                               ; preds = %18
  %23 = load ptr, ptr %3, align 8
  %24 = call i32 @xstrcasecmp(ptr noundef %23, ptr noundef @.str.11)
  %25 = icmp ne i32 %24, 0
  br i1 %25, label %26, label %30

26:                                               ; preds = %22
  %27 = load ptr, ptr %3, align 8
  %28 = call i32 @xstrcasecmp(ptr noundef %27, ptr noundef @.str.12)
  %29 = icmp ne i32 %28, 0
  br i1 %29, label %31, label %30

30:                                               ; preds = %26, %22, %18
  store i32 -1, ptr %2, align 4
  store i32 1, ptr %8, align 4
  br label %70

31:                                               ; preds = %26
  %32 = load ptr, ptr %3, align 8
  %33 = call zeroext i1 @_is_valid_timespec(ptr noundef %32)
  br i1 %33, label %35, label %34

34:                                               ; preds = %31
  store i32 -2, ptr %2, align 4
  store i32 1, ptr %8, align 4
  br label %70

35:                                               ; preds = %31
  %36 = load ptr, ptr %3, align 8
  %37 = call ptr @xstrchr(ptr noundef %36, i32 noundef 45)
  %38 = icmp ne ptr %37, null
  br i1 %38, label %39, label %48

39:                                               ; preds = %35
  %40 = load ptr, ptr %3, align 8
  %41 = call i32 (ptr, ptr, ...) @__isoc99_sscanf(ptr noundef %40, ptr noundef @.str.13, ptr noundef %4, ptr noundef %5, ptr noundef %6, ptr noundef %7) #7
  %42 = load i32, ptr %4, align 4
  %43 = mul nsw i32 %42, 86400
  store i32 %43, ptr %4, align 4
  %44 = load i32, ptr %5, align 4
  %45 = mul nsw i32 %44, 3600
  store i32 %45, ptr %5, align 4
  %46 = load i32, ptr %6, align 4
  %47 = mul nsw i32 %46, 60
  store i32 %47, ptr %6, align 4
  br label %62

48:                                               ; preds = %35
  %49 = load ptr, ptr %3, align 8
  %50 = call i32 (ptr, ptr, ...) @__isoc99_sscanf(ptr noundef %49, ptr noundef @.str.14, ptr noundef %5, ptr noundef %6, ptr noundef %7) #7
  %51 = icmp eq i32 %50, 3
  br i1 %51, label %52, label %57

52:                                               ; preds = %48
  %53 = load i32, ptr %5, align 4
  %54 = mul nsw i32 %53, 3600
  store i32 %54, ptr %5, align 4
  %55 = load i32, ptr %6, align 4
  %56 = mul nsw i32 %55, 60
  store i32 %56, ptr %6, align 4
  br label %61

57:                                               ; preds = %48
  %58 = load i32, ptr %6, align 4
  store i32 %58, ptr %7, align 4
  %59 = load i32, ptr %5, align 4
  %60 = mul nsw i32 %59, 60
  store i32 %60, ptr %6, align 4
  store i32 0, ptr %5, align 4
  br label %61

61:                                               ; preds = %57, %52
  br label %62

62:                                               ; preds = %61, %39
  %63 = load i32, ptr %4, align 4
  %64 = load i32, ptr %5, align 4
  %65 = add nsw i32 %63, %64
  %66 = load i32, ptr %6, align 4
  %67 = add nsw i32 %65, %66
  %68 = load i32, ptr %7, align 4
  %69 = add nsw i32 %67, %68
  store i32 %69, ptr %2, align 4
  store i32 1, ptr %8, align 4
  br label %70

70:                                               ; preds = %62, %34, %30, %17
  call void @llvm.lifetime.end.p0(i64 4, ptr %7) #7
  call void @llvm.lifetime.end.p0(i64 4, ptr %6) #7
  call void @llvm.lifetime.end.p0(i64 4, ptr %5) #7
  call void @llvm.lifetime.end.p0(i64 4, ptr %4) #7
  %71 = load i32, ptr %2, align 4
  ret i32 %71
}