; Function Attrs: nounwind uwtable
define dso_local i32 @time_str2secs(ptr noundef %0) #0 {
  %2 = alloca i32, align 4
  %3 = alloca i32, align 4
  %4 = alloca i32, align 4
  %5 = alloca i32, align 4
  call void @llvm.lifetime.start.p0(i64 4, ptr nonnull %2) #13
  store i32 0, ptr %2, align 4
  call void @llvm.lifetime.start.p0(i64 4, ptr nonnull %3) #13
  store i32 0, ptr %3, align 4
  call void @llvm.lifetime.start.p0(i64 4, ptr nonnull %4) #13
  store i32 0, ptr %4, align 4
  call void @llvm.lifetime.start.p0(i64 4, ptr nonnull %5) #13
  store i32 0, ptr %5, align 4
  %6 = icmp eq ptr %0, null
  br i1 %6, label %_is_valid_timespec.exit.thread, label %7

7:                                                ; preds = %1
  %8 = load i8, ptr %0, align 1
  %9 = icmp eq i8 %8, 0
  br i1 %9, label %_is_valid_timespec.exit.thread, label %10

10:                                               ; preds = %7
  %11 = tail call i32 @xstrcasecmp(ptr noundef nonnull %0, ptr noundef nonnull @.str.10) #13
  %.not = icmp eq i32 %11, 0
  br i1 %.not, label %_is_valid_timespec.exit.thread, label %12

12:                                               ; preds = %10
  %13 = tail call i32 @xstrcasecmp(ptr noundef nonnull %0, ptr noundef nonnull @.str.11) #13
  %.not10 = icmp eq i32 %13, 0
  br i1 %.not10, label %_is_valid_timespec.exit.thread, label %14

14:                                               ; preds = %12
  %15 = tail call i32 @xstrcasecmp(ptr noundef nonnull %0, ptr noundef nonnull @.str.12) #13
  %.not11 = icmp eq i32 %15, 0
  br i1 %.not11, label %_is_valid_timespec.exit.thread, label %16

16:                                               ; preds = %14
  %17 = load i8, ptr %0, align 1
  %.not51.i = icmp eq i8 %17, 0
  br i1 %.not51.i, label %_is_valid_timespec.exit.thread, label %.lr.ph.i

.lr.ph.i:                                         ; preds = %16, %27
  %18 = phi i8 [ %29, %27 ], [ %17, %16 ]
  %.056.i = phi i1 [ %or.cond46.i, %27 ], [ false, %16 ]
  %.03255.i = phi i32 [ %.133.i, %27 ], [ 0, %16 ]
  %.03454.i = phi i32 [ %.135.i, %27 ], [ 0, %16 ]
  %.03653.i = phi i32 [ %.137.i, %27 ], [ 0, %16 ]
  %.03852.i = phi ptr [ %28, %27 ], [ %0, %16 ]
  %19 = add i8 %18, -48
  %or.cond46.i = icmp ult i8 %19, 10
  br i1 %or.cond46.i, label %20, label %22

20:                                               ; preds = %.lr.ph.i
  %not..i = xor i1 %.056.i, true
  %21 = zext i1 %not..i to i32
  %spec.select.i = add nsw i32 %.03653.i, %21
  br label %27

22:                                               ; preds = %.lr.ph.i
  switch i8 %18, label %_is_valid_timespec.exit.thread [
    i8 45, label %23
    i8 58, label %25
  ]

23:                                               ; preds = %22
  %24 = add nsw i32 %.03454.i, 1
  %.not45.i = icmp eq i32 %.03255.i, 0
  br i1 %.not45.i, label %27, label %_is_valid_timespec.exit.thread

25:                                               ; preds = %22
  %26 = add nsw i32 %.03255.i, 1
  br label %27

27:                                               ; preds = %25, %23, %20
  %.137.i = phi i32 [ %.03653.i, %23 ], [ %.03653.i, %25 ], [ %spec.select.i, %20 ]
  %.135.i = phi i32 [ %24, %23 ], [ %.03454.i, %25 ], [ %.03454.i, %20 ]
  %.133.i = phi i32 [ 0, %23 ], [ %26, %25 ], [ %.03255.i, %20 ]
  %28 = getelementptr inbounds nuw i8, ptr %.03852.i, i64 1
  %29 = load i8, ptr %28, align 1
  %.not.i = icmp eq i8 %29, 0
  br i1 %.not.i, label %._crit_edge.i, label %.lr.ph.i, !llvm.loop !13

._crit_edge.i:                                    ; preds = %27
  %.not43.i = icmp eq i32 %.137.i, 0
  br i1 %.not43.i, label %_is_valid_timespec.exit.thread, label %30

30:                                               ; preds = %._crit_edge.i
  %31 = icmp sgt i32 %.135.i, 1
  %32 = icmp sgt i32 %.133.i, 2
  %or.cond.i = select i1 %31, i1 true, i1 %32
  br i1 %or.cond.i, label %_is_valid_timespec.exit.thread, label %33

33:                                               ; preds = %30
  %.not44.i = icmp eq i32 %.135.i, 0
  %34 = icmp eq i32 %.133.i, 1
  br i1 %.not44.i, label %40, label %35

35:                                               ; preds = %33
  %36 = icmp slt i32 %.137.i, 3
  %or.cond3.i = and i1 %36, %34
  br i1 %or.cond3.i, label %_is_valid_timespec.exit.thread, label %37

37:                                               ; preds = %35
  %38 = icmp eq i32 %.133.i, 2
  %39 = icmp slt i32 %.137.i, 4
  %or.cond5.i = and i1 %39, %38
  br i1 %or.cond5.i, label %_is_valid_timespec.exit.thread, label %_is_valid_timespec.exit

40:                                               ; preds = %33
  %41 = icmp slt i32 %.137.i, 2
  %or.cond7.i = and i1 %41, %34
  br i1 %or.cond7.i, label %_is_valid_timespec.exit.thread, label %42

42:                                               ; preds = %40
  %43 = icmp eq i32 %.133.i, 2
  %44 = icmp slt i32 %.137.i, 3
  %or.cond9.i = and i1 %44, %43
  br i1 %or.cond9.i, label %_is_valid_timespec.exit.thread, label %_is_valid_timespec.exit

_is_valid_timespec.exit:                          ; preds = %42, %37
  %45 = tail call ptr @xstrchr(ptr noundef nonnull %0, i32 noundef 45) #13
  %.not12 = icmp eq ptr %45, null
  br i1 %.not12, label %52, label %46

46:                                               ; preds = %_is_valid_timespec.exit
  %47 = call i32 (ptr, ptr, ...) @__isoc99_sscanf(ptr noundef nonnull %0, ptr noundef nonnull @.str.13, ptr noundef nonnull %2, ptr noundef nonnull %3, ptr noundef nonnull %4, ptr noundef nonnull %5) #13
  %48 = load i32, ptr %2, align 4
  %49 = mul nsw i32 %48, 86400
  %50 = load i32, ptr %3, align 4
  %51 = mul nsw i32 %50, 3600
  br label %60

52:                                               ; preds = %_is_valid_timespec.exit
  %53 = call i32 (ptr, ptr, ...) @__isoc99_sscanf(ptr noundef nonnull %0, ptr noundef nonnull @.str.14, ptr noundef nonnull %3, ptr noundef nonnull %4, ptr noundef nonnull %5) #13
  %54 = icmp eq i32 %53, 3
  br i1 %54, label %55, label %58

55:                                               ; preds = %52
  %56 = load i32, ptr %3, align 4
  %57 = mul nsw i32 %56, 3600
  br label %60

58:                                               ; preds = %52
  %59 = load i32, ptr %4, align 4
  store i32 %59, ptr %5, align 4
  br label %60

60:                                               ; preds = %55, %58, %46
  %.sink14 = phi ptr [ %4, %55 ], [ %3, %58 ], [ %4, %46 ]
  %61 = phi i32 [ %57, %55 ], [ 0, %58 ], [ %51, %46 ]
  %62 = phi i32 [ 0, %55 ], [ 0, %58 ], [ %49, %46 ]
  %63 = load i32, ptr %.sink14, align 4
  %64 = mul nsw i32 %63, 60
  %65 = add nsw i32 %61, %62
  %66 = add nsw i32 %65, %64
  %67 = load i32, ptr %5, align 4
  %68 = add nsw i32 %66, %67
  br label %_is_valid_timespec.exit.thread

_is_valid_timespec.exit.thread:                   ; preds = %22, %23, %16, %42, %40, %37, %35, %30, %._crit_edge.i, %10, %12, %14, %1, %7, %60
  %.0 = phi i32 [ %68, %60 ], [ -2, %7 ], [ -2, %1 ], [ -1, %14 ], [ -1, %12 ], [ -1, %10 ], [ -2, %._crit_edge.i ], [ -2, %30 ], [ -2, %35 ], [ -2, %37 ], [ -2, %40 ], [ -2, %42 ], [ -2, %16 ], [ -2, %23 ], [ -2, %22 ]
  call void @llvm.lifetime.end.p0(i64 4, ptr nonnull %5) #13
  call void @llvm.lifetime.end.p0(i64 4, ptr nonnull %4) #13
  call void @llvm.lifetime.end.p0(i64 4, ptr nonnull %3) #13
  call void @llvm.lifetime.end.p0(i64 4, ptr nonnull %2) #13
  ret i32 %.0
}